---
triple:          'arm64-apple-darwin'
binary-path:     scratch_8
relocations:
  - { offsetInCU: 0x37C5, offset: 0x37C5, size: 0x8, addend: 0x0, symName: __ZNSt3__113__fill_n_trueB7v160002INS_8__bitsetILm1ELm32EEEEEvNS_14__bit_iteratorIT_Lb0EXLi0EEEENS4_9size_typeE, symObjAddr: 0x15E0, symBinAddr: 0x1000042DC, symSize: 0x160 }
  - { offsetInCU: 0x388A, offset: 0x388A, size: 0x8, addend: 0x0, symName: __ZNSt3__114__fill_n_falseB7v160002INS_8__bitsetILm1ELm32EEEEEvNS_14__bit_iteratorIT_Lb0EXLi0EEEENS4_9size_typeE, symObjAddr: 0x1740, symBinAddr: 0x10000443C, symSize: 0x15C }
  - { offsetInCU: 0x394F, offset: 0x394F, size: 0x8, addend: 0x0, symName: __ZNSt3__124__put_character_sequenceB7v160002IcNS_11char_traitsIcEEEERNS_13basic_ostreamIT_T0_EES7_PKS4_m, symObjAddr: 0x1FE0, symBinAddr: 0x100004CDC, symSize: 0x1F4 }
  - { offsetInCU: 0x612E, offset: 0x612E, size: 0x8, addend: 0x0, symName: __ZNSt3__16chronomiB7v160002IxNS_5ratioILl1ELl1000000000EEExS3_EENS_11common_typeIJNS0_8durationIT_T0_EENS5_IT1_T2_EEEE4typeERKS8_RKSB_, symObjAddr: 0x46F0, symBinAddr: 0x1000073EC, symSize: 0x70 }
  - { offsetInCU: 0x6817, offset: 0x6817, size: 0x8, addend: 0x0, symName: __ZNSt3__16chronomiB7v160002INS0_12steady_clockENS0_8durationIxNS_5ratioILl1ELl1000000000EEEEES6_EENS_11common_typeIJT0_T1_EE4typeERKNS0_10time_pointIT_S8_EERKNSC_ISD_S9_EE, symObjAddr: 0xB28, symBinAddr: 0x100003824, symSize: 0x58 }
  - { offsetInCU: 0x686C, offset: 0x686C, size: 0x8, addend: 0x0, symName: __ZNSt3__16chrono13duration_castB7v160002INS0_8durationIxNS_5ratioILl1ELl1000EEEEEdNS3_ILl1ELl1EEEEENS_9enable_ifIXsr13__is_durationIT_EE5valueES8_E4typeERKNS2_IT0_T1_EE, symObjAddr: 0xBBC, symBinAddr: 0x1000038B8, symSize: 0x30 }
  - { offsetInCU: 0x69A7, offset: 0x69A7, size: 0x8, addend: 0x0, symName: __ZNSt3__16chrono13duration_castB7v160002INS0_8durationIdNS_5ratioILl1ELl1EEEEExNS3_ILl1ELl1000000000EEEEENS_9enable_ifIXsr13__is_durationIT_EE5valueES8_E4typeERKNS2_IT0_T1_EE, symObjAddr: 0x4844, symBinAddr: 0x100007540, symSize: 0x30 }
  - { offsetInCU: 0x7963, offset: 0x7963, size: 0x8, addend: 0x0, symName: __ZNSt3__1lsB7v160002INS_11char_traitsIcEEEERNS_13basic_ostreamIcT_EES6_PKc, symObjAddr: 0x37C, symBinAddr: 0x100003078, symSize: 0x48 }
  - { offsetInCU: 0x79A9, offset: 0x79A9, size: 0x8, addend: 0x0, symName: __ZNSt3__1neB7v160002IPiEEbRKNS_11__wrap_iterIT_EES6_, symObjAddr: 0xABC, symBinAddr: 0x1000037B8, symSize: 0x34 }
  - { offsetInCU: 0x7A08, offset: 0x7A08, size: 0x8, addend: 0x0, symName: __ZNSt3__120__throw_out_of_rangeB7v160002EPKc, symObjAddr: 0xE34, symBinAddr: 0x100003B30, symSize: 0x64 }
  - { offsetInCU: 0x7A32, offset: 0x7A32, size: 0x8, addend: 0x0, symName: __ZNSt3__13minB7v160002ImEERKT_S3_S3_, symObjAddr: 0xE98, symBinAddr: 0x100003B94, symSize: 0x2C }
  - { offsetInCU: 0x7A75, offset: 0x7A75, size: 0x8, addend: 0x0, symName: __ZNSt3__124__throw_invalid_argumentB7v160002EPKc, symObjAddr: 0xF1C, symBinAddr: 0x100003C18, symSize: 0x64 }
  - { offsetInCU: 0x7A9D, offset: 0x7A9D, size: 0x8, addend: 0x0, symName: __ZNSt3__14fillB7v160002INS_8__bitsetILm1ELm32EEEEEvNS_14__bit_iteratorIT_Lb0EXLi0EEEES5_b, symObjAddr: 0x1028, symBinAddr: 0x100003D24, symSize: 0x6C }
  - { offsetInCU: 0x7AF0, offset: 0x7AF0, size: 0x8, addend: 0x0, symName: __ZNSt3__13minB7v160002ImNS_6__lessImmEEEERKT_S5_S5_T0_, symObjAddr: 0x1174, symBinAddr: 0x100003E70, symSize: 0x54 }
  - { offsetInCU: 0x7B85, offset: 0x7B85, size: 0x8, addend: 0x0, symName: __ZNSt3__112__to_addressB7v160002IKcEEPT_S3_, symObjAddr: 0x1224, symBinAddr: 0x100003F20, symSize: 0x14 }
  - { offsetInCU: 0x7BBA, offset: 0x7BBA, size: 0x8, addend: 0x0, symName: __ZNSt3__130__libcpp_is_constant_evaluatedB7v160002Ev, symObjAddr: 0x1350, symBinAddr: 0x10000404C, symSize: 0xC }
  - { offsetInCU: 0x7C0A, offset: 0x7C0A, size: 0x8, addend: 0x0, symName: __ZNSt3__16fill_nB7v160002INS_8__bitsetILm1ELm32EEEEEvNS_14__bit_iteratorIT_Lb0EXLi0EEEENS4_9size_typeEb, symObjAddr: 0x14D0, symBinAddr: 0x1000041CC, symSize: 0x94 }
  - { offsetInCU: 0x7C5C, offset: 0x7C5C, size: 0x8, addend: 0x0, symName: __ZNSt3__1miB7v160002ERKNS_14__bit_iteratorINS_8__bitsetILm1ELm32EEELb0ELm0EEES5_, symObjAddr: 0x1598, symBinAddr: 0x100004294, symSize: 0x48 }
  - { offsetInCU: 0x7C99, offset: 0x7C99, size: 0x8, addend: 0x0, symName: __ZNSt3__16fill_nB7v160002IPmmmEET_S2_T0_RKT1_, symObjAddr: 0x189C, symBinAddr: 0x100004598, symSize: 0x44 }
  - { offsetInCU: 0x7CFC, offset: 0x7CFC, size: 0x8, addend: 0x0, symName: __ZNSt3__112__to_addressB7v160002ImEEPT_S2_, symObjAddr: 0x18E0, symBinAddr: 0x1000045DC, symSize: 0x14 }
  - { offsetInCU: 0x7D31, offset: 0x7D31, size: 0x8, addend: 0x0, symName: __ZNSt3__18__fill_nB7v160002IPmmmEET_S2_T0_RKT1_, symObjAddr: 0x18F4, symBinAddr: 0x1000045F0, symSize: 0x64 }
  - { offsetInCU: 0x7D94, offset: 0x7D94, size: 0x8, addend: 0x0, symName: __ZNSt3__121__convert_to_integralB7v160002Em, symObjAddr: 0x1958, symBinAddr: 0x100004654, symSize: 0x14 }
  - { offsetInCU: 0x7DC0, offset: 0x7DC0, size: 0x8, addend: 0x0, symName: __ZNSt3__16fill_nB7v160002IPmmiEET_S2_T0_RKT1_, symObjAddr: 0x196C, symBinAddr: 0x100004668, symSize: 0x44 }
  - { offsetInCU: 0x7E23, offset: 0x7E23, size: 0x8, addend: 0x0, symName: __ZNSt3__18__fill_nB7v160002IPmmiEET_S2_T0_RKT1_, symObjAddr: 0x19B0, symBinAddr: 0x1000046AC, symSize: 0x64 }
  - { offsetInCU: 0x7E86, offset: 0x7E86, size: 0x8, addend: 0x0, symName: __ZNSt3__119__debug_db_insert_cB7v160002INS_12basic_stringIcNS_11char_traitsIcEENS_9allocatorIcEEEEEEvPT_, symObjAddr: 0x1D20, symBinAddr: 0x100004A1C, symSize: 0x10 }
  - { offsetInCU: 0x7EEA, offset: 0x7EEA, size: 0x8, addend: 0x0, symName: __ZNSt3__116__pad_and_outputB7v160002IcNS_11char_traitsIcEEEENS_19ostreambuf_iteratorIT_T0_EES6_PKS4_S8_S8_RNS_8ios_baseES4_, symObjAddr: 0x2238, symBinAddr: 0x100004F34, symSize: 0x248 }
  - { offsetInCU: 0x7FB9, offset: 0x7FB9, size: 0x8, addend: 0x0, symName: __ZNSt3__19use_facetB7v160002INS_5ctypeIcEEEERKT_RKNS_6localeE, symObjAddr: 0x2760, symBinAddr: 0x10000545C, symSize: 0x2C }
  - { offsetInCU: 0x8488, offset: 0x8488, size: 0x8, addend: 0x0, symName: __ZNSt3__118__constexpr_strlenB7v160002EPKc, symObjAddr: 0x27F8, symBinAddr: 0x1000054F4, symSize: 0x24 }
  - { offsetInCU: 0x84B4, offset: 0x84B4, size: 0x8, addend: 0x0, symName: __ZNSt3__119__debug_db_insert_cB7v160002INS_6vectorIiNS_9allocatorIiEEEEEEvPT_, symObjAddr: 0x28A4, symBinAddr: 0x1000055A0, symSize: 0x10 }
  - { offsetInCU: 0x84E5, offset: 0x84E5, size: 0x8, addend: 0x0, symName: __ZNSt3__118__debug_db_erase_cB7v160002INS_6vectorIiNS_9allocatorIiEEEEEEvPT_, symObjAddr: 0x2B60, symBinAddr: 0x10000585C, symSize: 0x10 }
  - { offsetInCU: 0x8516, offset: 0x8516, size: 0x8, addend: 0x0, symName: __ZNSt3__112__to_addressB7v160002IiEEPT_S2_, symObjAddr: 0x2CA4, symBinAddr: 0x1000059A0, symSize: 0x14 }
  - { offsetInCU: 0x854B, offset: 0x854B, size: 0x8, addend: 0x0, symName: __ZNSt3__119__libcpp_deallocateB7v160002EPvmm, symObjAddr: 0x2E08, symBinAddr: 0x100005B04, symSize: 0x30 }
  - { offsetInCU: 0x8593, offset: 0x8593, size: 0x8, addend: 0x0, symName: __ZNSt3__127__do_deallocate_handle_sizeB7v160002IJEEEvPvmDpT_, symObjAddr: 0x2E38, symBinAddr: 0x100005B34, symSize: 0x28 }
  - { offsetInCU: 0x85D1, offset: 0x85D1, size: 0x8, addend: 0x0, symName: __ZNSt3__124__libcpp_operator_deleteB7v160002IJPvEEEvDpT_, symObjAddr: 0x2E60, symBinAddr: 0x100005B5C, symSize: 0x24 }
  - { offsetInCU: 0x8807, offset: 0x8807, size: 0x8, addend: 0x0, symName: __ZNSt3__120__throw_length_errorB7v160002EPKc, symObjAddr: 0x31E8, symBinAddr: 0x100005EE4, symSize: 0x64 }
  - { offsetInCU: 0x882F, offset: 0x882F, size: 0x8, addend: 0x0, symName: __ZNSt3__119__allocate_at_leastB7v160002INS_9allocatorIiEEEENS_19__allocation_resultINS_16allocator_traitsIT_E7pointerEEERS5_m, symObjAddr: 0x33DC, symBinAddr: 0x1000060D8, symSize: 0x40 }
  - { offsetInCU: 0x8872, offset: 0x8872, size: 0x8, addend: 0x0, symName: __ZNSt3__117__libcpp_allocateB7v160002Emm, symObjAddr: 0x358C, symBinAddr: 0x100006288, symSize: 0x28 }
  - { offsetInCU: 0x88AF, offset: 0x88AF, size: 0x8, addend: 0x0, symName: __ZNSt3__121__libcpp_operator_newB7v160002IJmEEEPvDpT_, symObjAddr: 0x35B4, symBinAddr: 0x1000062B0, symSize: 0x24 }
  - { offsetInCU: 0x88E8, offset: 0x88E8, size: 0x8, addend: 0x0, symName: __ZNSt3__142__uninitialized_allocator_move_if_noexceptB7v160002INS_9allocatorIiEENS_16reverse_iteratorIPiEES5_ivEET1_RT_T0_S9_S6_, symObjAddr: 0x3650, symBinAddr: 0x10000634C, symSize: 0xE8 }
  - { offsetInCU: 0x8965, offset: 0x8965, size: 0x8, addend: 0x0, symName: __ZNSt3__14swapB7v160002IPiEEvRT_S3_, symObjAddr: 0x3784, symBinAddr: 0x100006480, symSize: 0x3C }
  - { offsetInCU: 0x89B6, offset: 0x89B6, size: 0x8, addend: 0x0, symName: __ZNSt3__125__debug_db_invalidate_allB7v160002INS_6vectorIiNS_9allocatorIiEEEEEEvPT_, symObjAddr: 0x3894, symBinAddr: 0x100006590, symSize: 0x10 }
  - { offsetInCU: 0x89E7, offset: 0x89E7, size: 0x8, addend: 0x0, symName: __ZNSt3__1neB7v160002IPiS1_EEbRKNS_16reverse_iteratorIT_EERKNS2_IT0_EE, symObjAddr: 0x38A4, symBinAddr: 0x1000065A0, symSize: 0x48 }
  - { offsetInCU: 0x8A58, offset: 0x8A58, size: 0x8, addend: 0x0, symName: __ZNSt3__114__construct_atB7v160002IiJiEPiEEPT_S3_DpOT0_, symObjAddr: 0x38EC, symBinAddr: 0x1000065E8, symSize: 0x2C }
  - { offsetInCU: 0x8AC8, offset: 0x8AC8, size: 0x8, addend: 0x0, symName: __ZNSt3__112__to_addressB7v160002INS_16reverse_iteratorIPiEEvEENS_5decayIDTclsr19__to_address_helperIT_EE6__callclsr3stdE7declvalIRKS5_EEEEE4typeES7_, symObjAddr: 0x3918, symBinAddr: 0x100006614, symSize: 0x24 }
  - { offsetInCU: 0x8AFE, offset: 0x8AFE, size: 0x8, addend: 0x0, symName: __ZNSt3__14moveB7v160002INS_16reverse_iteratorIPiEES3_EET0_T_S5_S4_, symObjAddr: 0x3984, symBinAddr: 0x100006680, symSize: 0x78 }
  - { offsetInCU: 0x8B81, offset: 0x8B81, size: 0x8, addend: 0x0, symName: __ZNSt3__16__moveB7v160002INS_17_ClassicAlgPolicyENS_16reverse_iteratorIPiEES4_S4_EENS_4pairIT0_T2_EES6_T1_S7_, symObjAddr: 0x3A6C, symBinAddr: 0x100006768, symSize: 0x64 }
  - { offsetInCU: 0x8BED, offset: 0x8BED, size: 0x8, addend: 0x0, symName: __ZNSt3__123__dispatch_copy_or_moveB7v160002INS_17_ClassicAlgPolicyENS_11__move_loopIS1_EENS_14__move_trivialENS_16reverse_iteratorIPiEES7_S7_EENS_4pairIT2_T4_EES9_T3_SA_, symObjAddr: 0x3AD0, symBinAddr: 0x1000067CC, symSize: 0x7C }
  - { offsetInCU: 0x8C6B, offset: 0x8C6B, size: 0x8, addend: 0x0, symName: __ZNSt3__121__unwrap_and_dispatchB7v160002INS_10__overloadINS_11__move_loopINS_17_ClassicAlgPolicyEEENS_14__move_trivialEEENS_16reverse_iteratorIPiEES9_S9_Li0EEENS_4pairIT0_T2_EESB_T1_SC_, symObjAddr: 0x3B4C, symBinAddr: 0x100006848, symSize: 0x12C }
  - { offsetInCU: 0x8CFB, offset: 0x8CFB, size: 0x8, addend: 0x0, symName: __ZNSt3__114__unwrap_rangeB7v160002INS_16reverse_iteratorIPiEES3_EENS_4pairIT0_S5_EET_S7_, symObjAddr: 0x3C78, symBinAddr: 0x100006974, symSize: 0x84 }
  - { offsetInCU: 0x8E4F, offset: 0x8E4F, size: 0x8, addend: 0x0, symName: __ZNSt3__113__unwrap_iterB7v160002INS_16reverse_iteratorIPiEENS_18__unwrap_iter_implIS3_Lb0EEELi0EEEDTclsrT0_8__unwrapclsr3stdE7declvalIT_EEEES7_, symObjAddr: 0x3D9C, symBinAddr: 0x100006A98, symSize: 0x44 }
  - { offsetInCU: 0x8E93, offset: 0x8E93, size: 0x8, addend: 0x0, symName: __ZNSt3__19make_pairB7v160002INS_16reverse_iteratorIPiEES3_EENS_4pairINS_18__unwrap_ref_decayIT_E4typeENS5_IT0_E4typeEEEOS6_OS9_, symObjAddr: 0x3DE0, symBinAddr: 0x100006ADC, symSize: 0x38 }
  - { offsetInCU: 0x8EE2, offset: 0x8EE2, size: 0x8, addend: 0x0, symName: __ZNSt3__114__rewrap_rangeB7v160002INS_16reverse_iteratorIPiEES3_EET_S4_T0_, symObjAddr: 0x3E18, symBinAddr: 0x100006B14, symSize: 0x5C }
  - { offsetInCU: 0x8F2E, offset: 0x8F2E, size: 0x8, addend: 0x0, symName: __ZNSt3__113__rewrap_iterB7v160002INS_16reverse_iteratorIPiEES3_NS_18__unwrap_iter_implIS3_Lb0EEEEET_S6_T0_, symObjAddr: 0x3E74, symBinAddr: 0x100006B70, symSize: 0x88 }
  - { offsetInCU: 0x9035, offset: 0x9035, size: 0x8, addend: 0x0, symName: __ZNSt3__13maxB7v160002ImEERKT_S3_S3_, symObjAddr: 0x457C, symBinAddr: 0x100007278, symSize: 0x2C }
  - { offsetInCU: 0x9078, offset: 0x9078, size: 0x8, addend: 0x0, symName: __ZNSt3__13maxB7v160002ImNS_6__lessImmEEEERKT_S5_S5_T0_, symObjAddr: 0x45A8, symBinAddr: 0x1000072A4, symSize: 0x54 }
  - { offsetInCU: 0x90D2, offset: 0x90D2, size: 0x8, addend: 0x0, symName: __ZNSt3__1eqB7v160002IPiEEbRKNS_11__wrap_iterIT_EES6_, symObjAddr: 0x4690, symBinAddr: 0x10000738C, symSize: 0x48 }
  - { offsetInCU: 0x9403, offset: 0x9403, size: 0x8, addend: 0x0, symName: __ZSt28__throw_bad_array_new_lengthB7v160002v, symObjAddr: 0x3558, symBinAddr: 0x100006254, symSize: 0x34 }
  - { offsetInCU: 0x9A74, offset: 0x9A74, size: 0x8, addend: 0x0, symName: __ZNSt3__16vectorIiNS_9allocatorIiEEE26__swap_out_circular_bufferERNS_14__split_bufferIiRS2_EE, symObjAddr: 0x2FF0, symBinAddr: 0x100005CEC, symSize: 0x118 }
  - { offsetInCU: 0x9B2B, offset: 0x9B2B, size: 0x8, addend: 0x0, symName: __ZNKSt3__16chrono15__duration_castINS0_8durationIxNS_5ratioILl1ELl1000000000EEEEENS2_IdNS3_ILl1ELl1EEEEES4_Lb1ELb0EEclB7v160002ERKS5_, symObjAddr: 0x488C, symBinAddr: 0x100007588, symSize: 0x50 }
  - { offsetInCU: 0x9B97, offset: 0x9B97, size: 0x8, addend: 0x0, symName: __ZNKSt3__16chrono15__duration_castINS0_8durationIdNS_5ratioILl1ELl1EEEEENS2_IxNS3_ILl1ELl1000EEEEENS3_ILl1000ELl1EEELb0ELb1EEclB7v160002ERKS5_, symObjAddr: 0x4940, symBinAddr: 0x10000763C, symSize: 0x50 }
  - { offsetInCU: 0xBF79, offset: 0xBF79, size: 0x8, addend: 0x0, symName: __Z4btosNSt3__112basic_stringIcNS_11char_traitsIcEENS_9allocatorIcEEEE, symObjAddr: 0x0, symBinAddr: 0x100002CFC, symSize: 0xA4 }
  - { offsetInCU: 0xBFB6, offset: 0xBFB6, size: 0x8, addend: 0x0, symName: __ZNSt3__16bitsetILm32EEC1B7v160002IcNS_11char_traitsIcEENS_9allocatorIcEEEERKNS_12basic_stringIT_T0_T1_EENSB_9size_typeESE_S8_S8_, symObjAddr: 0xA4, symBinAddr: 0x100002DA0, symSize: 0x54 }
  - { offsetInCU: 0xC048, offset: 0xC048, size: 0x8, addend: 0x0, symName: __ZNKSt3__16bitsetILm32EE9to_stringB7v160002Ecc, symObjAddr: 0xF8, symBinAddr: 0x100002DF4, symSize: 0x3C }
  - { offsetInCU: 0xC08D, offset: 0xC08D, size: 0x8, addend: 0x0, symName: __Z6s_to_dNSt3__112basic_stringIcNS_11char_traitsIcEENS_9allocatorIcEEEE, symObjAddr: 0x134, symBinAddr: 0x100002E30, symSize: 0x38 }
  - { offsetInCU: 0xC0C9, offset: 0xC0C9, size: 0x8, addend: 0x0, symName: __ZNKSt3__112basic_stringIcNS_11char_traitsIcEENS_9allocatorIcEEE5c_strB7v160002Ev, symObjAddr: 0x16C, symBinAddr: 0x100002E68, symSize: 0x24 }
  - { offsetInCU: 0xC0EF, offset: 0xC0EF, size: 0x8, addend: 0x0, symName: __Z12String_matchNSt3__112basic_stringIcNS_11char_traitsIcEENS_9allocatorIcEEEES5_, symObjAddr: 0x190, symBinAddr: 0x100002E8C, symSize: 0x168 }
  - { offsetInCU: 0xC160, offset: 0xC160, size: 0x8, addend: 0x0, symName: __ZNKSt3__112basic_stringIcNS_11char_traitsIcEENS_9allocatorIcEEE4sizeB7v160002Ev, symObjAddr: 0x2F8, symBinAddr: 0x100002FF4, symSize: 0x54 }
  - { offsetInCU: 0xC186, offset: 0xC186, size: 0x8, addend: 0x0, symName: __ZNSt3__112basic_stringIcNS_11char_traitsIcEENS_9allocatorIcEEEixB7v160002Em, symObjAddr: 0x34C, symBinAddr: 0x100003048, symSize: 0x30 }
  - { offsetInCU: 0xC1BA, offset: 0xC1BA, size: 0x8, addend: 0x0, symName: __Z13missingNumberii, symObjAddr: 0x3C4, symBinAddr: 0x1000030C0, symSize: 0x254 }
  - { offsetInCU: 0xC25E, offset: 0xC25E, size: 0x8, addend: 0x0, symName: __ZNSt3__16vectorIiNS_9allocatorIiEEEC1B7v160002Ev, symObjAddr: 0x618, symBinAddr: 0x100003314, symSize: 0x2C }
  - { offsetInCU: 0xC288, offset: 0xC288, size: 0x8, addend: 0x0, symName: __ZNSt3__16vectorIiNS_9allocatorIiEEE7reserveEm, symObjAddr: 0x644, symBinAddr: 0x100003340, symSize: 0xF0 }
  - { offsetInCU: 0xC2E4, offset: 0xC2E4, size: 0x8, addend: 0x0, symName: __ZNSt3__16vectorIiNS_9allocatorIiEEEixB7v160002Em, symObjAddr: 0x734, symBinAddr: 0x100003430, symSize: 0x24 }
  - { offsetInCU: 0xC31B, offset: 0xC31B, size: 0x8, addend: 0x0, symName: __ZNSt3__16vectorIiNS_9allocatorIiEEE9push_backB7v160002EOi, symObjAddr: 0x758, symBinAddr: 0x100003454, symSize: 0x6C }
  - { offsetInCU: 0xC352, offset: 0xC352, size: 0x8, addend: 0x0, symName: __ZNSt3__16vectorIiNS_9allocatorIiEEED1B7v160002Ev, symObjAddr: 0x7C4, symBinAddr: 0x1000034C0, symSize: 0x2C }
  - { offsetInCU: 0xC37C, offset: 0xC37C, size: 0x8, addend: 0x0, symName: _main, symObjAddr: 0x7FC, symBinAddr: 0x1000034F8, symSize: 0x234 }
  - { offsetInCU: 0xC445, offset: 0xC445, size: 0x8, addend: 0x0, symName: __ZNSt3__19basic_iosIcNS_11char_traitsIcEEE3tieB7v160002EPNS_13basic_ostreamIcS2_EE, symObjAddr: 0xA30, symBinAddr: 0x10000372C, symSize: 0x2C }
  - { offsetInCU: 0xC48B, offset: 0xC48B, size: 0x8, addend: 0x0, symName: __ZNSt3__16vectorIiNS_9allocatorIiEEE5beginB7v160002Ev, symObjAddr: 0xA5C, symBinAddr: 0x100003758, symSize: 0x30 }
  - { offsetInCU: 0xC4B3, offset: 0xC4B3, size: 0x8, addend: 0x0, symName: __ZNSt3__16vectorIiNS_9allocatorIiEEE3endB7v160002Ev, symObjAddr: 0xA8C, symBinAddr: 0x100003788, symSize: 0x30 }
  - { offsetInCU: 0xC4DB, offset: 0xC4DB, size: 0x8, addend: 0x0, symName: __ZNKSt3__111__wrap_iterIPiEdeB7v160002Ev, symObjAddr: 0xAF0, symBinAddr: 0x1000037EC, symSize: 0x18 }
  - { offsetInCU: 0xC501, offset: 0xC501, size: 0x8, addend: 0x0, symName: __ZNSt3__111__wrap_iterIPiEppB7v160002Ev, symObjAddr: 0xB08, symBinAddr: 0x100003804, symSize: 0x20 }
  - { offsetInCU: 0xC52C, offset: 0xC52C, size: 0x8, addend: 0x0, symName: __ZNSt3__16chrono8durationIdNS_5ratioILl1ELl1EEEEC1B7v160002IxNS2_ILl1ELl1000000000EEEEERKNS1_IT_T0_EEPNS_9enable_ifIXaasr13__no_overflowIS8_S3_EE5valueooL_ZNS_17integral_constantIbLb1EE5valueEEaaeqsr13__no_overflowIS8_S3_E4typeE3denLi1Entsr23treat_as_floating_pointIS7_EE5valueEvE4typeE, symObjAddr: 0xB80, symBinAddr: 0x10000387C, symSize: 0x3C }
  - { offsetInCU: 0xC582, offset: 0xC582, size: 0x8, addend: 0x0, symName: __ZNKSt3__16chrono8durationIxNS_5ratioILl1ELl1000EEEE5countB7v160002Ev, symObjAddr: 0xBEC, symBinAddr: 0x1000038E8, symSize: 0x18 }
  - { offsetInCU: 0xC5A8, offset: 0xC5A8, size: 0x8, addend: 0x0, symName: __ZNSt3__16bitsetILm32EEC2B7v160002IcNS_11char_traitsIcEENS_9allocatorIcEEEERKNS_12basic_stringIT_T0_T1_EENSB_9size_typeESE_S8_S8_, symObjAddr: 0xC04, symBinAddr: 0x100003900, symSize: 0x218 }
  - { offsetInCU: 0xC6B3, offset: 0xC6B3, size: 0x8, addend: 0x0, symName: __ZNSt3__18__bitsetILm1ELm32EEC2Ev, symObjAddr: 0xE1C, symBinAddr: 0x100003B18, symSize: 0x18 }
  - { offsetInCU: 0xC6DF, offset: 0xC6DF, size: 0x8, addend: 0x0, symName: __ZNSt3__111char_traitsIcE2eqEcc, symObjAddr: 0xEC4, symBinAddr: 0x100003BC0, symSize: 0x28 }
  - { offsetInCU: 0xC710, offset: 0xC710, size: 0x8, addend: 0x0, symName: __ZNKSt3__112basic_stringIcNS_11char_traitsIcEENS_9allocatorIcEEEixB7v160002Em, symObjAddr: 0xEEC, symBinAddr: 0x100003BE8, symSize: 0x30 }
  - { offsetInCU: 0xC745, offset: 0xC745, size: 0x8, addend: 0x0, symName: __ZNSt3__16bitsetILm32EEixB7v160002Em, symObjAddr: 0xF80, symBinAddr: 0x100003C7C, symSize: 0x3C }
  - { offsetInCU: 0xC77A, offset: 0xC77A, size: 0x8, addend: 0x0, symName: __ZNSt3__115__bit_referenceINS_8__bitsetILm1ELm32EEELb1EEaSB7v160002Eb, symObjAddr: 0xFBC, symBinAddr: 0x100003CB8, symSize: 0x6C }
  - { offsetInCU: 0xC7AE, offset: 0xC7AE, size: 0x8, addend: 0x0, symName: __ZNSt3__18__bitsetILm1ELm32EE11__make_iterB7v160002Em, symObjAddr: 0x1094, symBinAddr: 0x100003D90, symSize: 0x60 }
  - { offsetInCU: 0xC7E3, offset: 0xC7E3, size: 0x8, addend: 0x0, symName: __ZNSt12out_of_rangeC1B7v160002EPKc, symObjAddr: 0x10F4, symBinAddr: 0x100003DF0, symSize: 0x34 }
  - { offsetInCU: 0xC81B, offset: 0xC81B, size: 0x8, addend: 0x0, symName: __ZNSt12out_of_rangeC2B7v160002EPKc, symObjAddr: 0x1128, symBinAddr: 0x100003E24, symSize: 0x4C }
  - { offsetInCU: 0xC867, offset: 0xC867, size: 0x8, addend: 0x0, symName: __ZNKSt3__16__lessImmEclB7v160002ERKmS3_, symObjAddr: 0x11C8, symBinAddr: 0x100003EC4, symSize: 0x34 }
  - { offsetInCU: 0xC8A9, offset: 0xC8A9, size: 0x8, addend: 0x0, symName: __ZNKSt3__112basic_stringIcNS_11char_traitsIcEENS_9allocatorIcEEE4dataB7v160002Ev, symObjAddr: 0x11FC, symBinAddr: 0x100003EF8, symSize: 0x28 }
  - { offsetInCU: 0xC8CF, offset: 0xC8CF, size: 0x8, addend: 0x0, symName: __ZNKSt3__112basic_stringIcNS_11char_traitsIcEENS_9allocatorIcEEE13__get_pointerB7v160002Ev, symObjAddr: 0x1238, symBinAddr: 0x100003F34, symSize: 0x54 }
  - { offsetInCU: 0xC8F5, offset: 0xC8F5, size: 0x8, addend: 0x0, symName: __ZNKSt3__112basic_stringIcNS_11char_traitsIcEENS_9allocatorIcEEE9__is_longB7v160002Ev, symObjAddr: 0x128C, symBinAddr: 0x100003F88, symSize: 0x74 }
  - { offsetInCU: 0xC91B, offset: 0xC91B, size: 0x8, addend: 0x0, symName: __ZNKSt3__112basic_stringIcNS_11char_traitsIcEENS_9allocatorIcEEE18__get_long_pointerB7v160002Ev, symObjAddr: 0x1300, symBinAddr: 0x100003FFC, symSize: 0x28 }
  - { offsetInCU: 0xC941, offset: 0xC941, size: 0x8, addend: 0x0, symName: __ZNKSt3__112basic_stringIcNS_11char_traitsIcEENS_9allocatorIcEEE19__get_short_pointerB7v160002Ev, symObjAddr: 0x1328, symBinAddr: 0x100004024, symSize: 0x28 }
  - { offsetInCU: 0xC967, offset: 0xC967, size: 0x8, addend: 0x0, symName: __ZNKSt3__117__compressed_pairINS_12basic_stringIcNS_11char_traitsIcEENS_9allocatorIcEEE5__repES5_E5firstB7v160002Ev, symObjAddr: 0x135C, symBinAddr: 0x100004058, symSize: 0x24 }
  - { offsetInCU: 0xC98D, offset: 0xC98D, size: 0x8, addend: 0x0, symName: __ZNKSt3__122__compressed_pair_elemINS_12basic_stringIcNS_11char_traitsIcEENS_9allocatorIcEEE5__repELi0ELb0EE5__getB7v160002Ev, symObjAddr: 0x1380, symBinAddr: 0x10000407C, symSize: 0x14 }
  - { offsetInCU: 0xC9B3, offset: 0xC9B3, size: 0x8, addend: 0x0, symName: __ZNSt3__114pointer_traitsIPKcE10pointer_toB7v160002ERS1_, symObjAddr: 0x1394, symBinAddr: 0x100004090, symSize: 0x14 }
  - { offsetInCU: 0xC9D6, offset: 0xC9D6, size: 0x8, addend: 0x0, symName: __ZNSt16invalid_argumentC1B7v160002EPKc, symObjAddr: 0x13A8, symBinAddr: 0x1000040A4, symSize: 0x34 }
  - { offsetInCU: 0xCA0E, offset: 0xCA0E, size: 0x8, addend: 0x0, symName: __ZNSt16invalid_argumentC2B7v160002EPKc, symObjAddr: 0x13DC, symBinAddr: 0x1000040D8, symSize: 0x4C }
  - { offsetInCU: 0xCA46, offset: 0xCA46, size: 0x8, addend: 0x0, symName: __ZNSt3__18__bitsetILm1ELm32EE10__make_refB7v160002Em, symObjAddr: 0x1428, symBinAddr: 0x100004124, symSize: 0x40 }
  - { offsetInCU: 0xCA7B, offset: 0xCA7B, size: 0x8, addend: 0x0, symName: __ZNSt3__115__bit_referenceINS_8__bitsetILm1ELm32EEELb1EEC1B7v160002EPmm, symObjAddr: 0x1468, symBinAddr: 0x100004164, symSize: 0x3C }
  - { offsetInCU: 0xCAC1, offset: 0xCAC1, size: 0x8, addend: 0x0, symName: __ZNSt3__115__bit_referenceINS_8__bitsetILm1ELm32EEELb1EEC2B7v160002EPmm, symObjAddr: 0x14A4, symBinAddr: 0x1000041A0, symSize: 0x2C }
  - { offsetInCU: 0xCB07, offset: 0xCB07, size: 0x8, addend: 0x0, symName: __ZNSt3__114__bit_iteratorINS_8__bitsetILm1ELm32EEELb0ELm0EEC1B7v160002ERKS3_, symObjAddr: 0x1564, symBinAddr: 0x100004260, symSize: 0x34 }
  - { offsetInCU: 0xCB40, offset: 0xCB40, size: 0x8, addend: 0x0, symName: __ZNSt3__114__bit_iteratorINS_8__bitsetILm1ELm32EEELb0ELm0EEC2B7v160002ERKS3_, symObjAddr: 0x1A14, symBinAddr: 0x100004710, symSize: 0x30 }
  - { offsetInCU: 0xCB79, offset: 0xCB79, size: 0x8, addend: 0x0, symName: __ZNSt3__114__bit_iteratorINS_8__bitsetILm1ELm32EEELb0ELm0EEC1B7v160002EPmj, symObjAddr: 0x1A44, symBinAddr: 0x100004740, symSize: 0x3C }
  - { offsetInCU: 0xCBC1, offset: 0xCBC1, size: 0x8, addend: 0x0, symName: __ZNSt3__114__bit_iteratorINS_8__bitsetILm1ELm32EEELb0ELm0EEC2B7v160002EPmj, symObjAddr: 0x1A80, symBinAddr: 0x10000477C, symSize: 0x2C }
  - { offsetInCU: 0xCC09, offset: 0xCC09, size: 0x8, addend: 0x0, symName: __ZNKSt3__16bitsetILm32EE9to_stringB7v160002IcNS_11char_traitsIcEENS_9allocatorIcEEEENS_12basic_stringIT_T0_T1_EES8_S8_, symObjAddr: 0x1AAC, symBinAddr: 0x1000047A8, symSize: 0x140 }
  - { offsetInCU: 0xCC8F, offset: 0xCC8F, size: 0x8, addend: 0x0, symName: __ZNSt3__112basic_stringIcNS_11char_traitsIcEENS_9allocatorIcEEEC1B7v160002Emc, symObjAddr: 0x1BEC, symBinAddr: 0x1000048E8, symSize: 0x3C }
  - { offsetInCU: 0xCCD7, offset: 0xCCD7, size: 0x8, addend: 0x0, symName: __ZNKSt3__16bitsetILm32EEixB7v160002Em, symObjAddr: 0x1C28, symBinAddr: 0x100004924, symSize: 0x3C }
  - { offsetInCU: 0xCD0C, offset: 0xCD0C, size: 0x8, addend: 0x0, symName: __ZNKSt3__121__bit_const_referenceINS_8__bitsetILm1ELm32EEEEcvbB7v160002Ev, symObjAddr: 0x1C64, symBinAddr: 0x100004960, symSize: 0x2C }
  - { offsetInCU: 0xCD32, offset: 0xCD32, size: 0x8, addend: 0x0, symName: __ZNSt3__112basic_stringIcNS_11char_traitsIcEENS_9allocatorIcEEEC2B7v160002Emc, symObjAddr: 0x1C90, symBinAddr: 0x10000498C, symSize: 0x54 }
  - { offsetInCU: 0xCD80, offset: 0xCD80, size: 0x8, addend: 0x0, symName: __ZNSt3__117__compressed_pairINS_12basic_stringIcNS_11char_traitsIcEENS_9allocatorIcEEE5__repES5_EC1B7v160002INS_18__default_init_tagESA_EEOT_OT0_, symObjAddr: 0x1CE4, symBinAddr: 0x1000049E0, symSize: 0x3C }
  - { offsetInCU: 0xCDD8, offset: 0xCDD8, size: 0x8, addend: 0x0, symName: __ZNSt3__117__compressed_pairINS_12basic_stringIcNS_11char_traitsIcEENS_9allocatorIcEEE5__repES5_EC2B7v160002INS_18__default_init_tagESA_EEOT_OT0_, symObjAddr: 0x1D30, symBinAddr: 0x100004A2C, symSize: 0x3C }
  - { offsetInCU: 0xCE30, offset: 0xCE30, size: 0x8, addend: 0x0, symName: __ZNSt3__122__compressed_pair_elemINS_12basic_stringIcNS_11char_traitsIcEENS_9allocatorIcEEE5__repELi0ELb0EEC2B7v160002ENS_18__default_init_tagE, symObjAddr: 0x1D6C, symBinAddr: 0x100004A68, symSize: 0x14 }
  - { offsetInCU: 0xCE65, offset: 0xCE65, size: 0x8, addend: 0x0, symName: __ZNSt3__122__compressed_pair_elemINS_9allocatorIcEELi1ELb1EEC2B7v160002ENS_18__default_init_tagE, symObjAddr: 0x1D80, symBinAddr: 0x100004A7C, symSize: 0x2C }
  - { offsetInCU: 0xCE9A, offset: 0xCE9A, size: 0x8, addend: 0x0, symName: __ZNSt3__19allocatorIcEC2B7v160002Ev, symObjAddr: 0x1DAC, symBinAddr: 0x100004AA8, symSize: 0x2C }
  - { offsetInCU: 0xCEC4, offset: 0xCEC4, size: 0x8, addend: 0x0, symName: __ZNSt3__116__non_trivial_ifILb1ENS_9allocatorIcEEEC2B7v160002Ev, symObjAddr: 0x1DD8, symBinAddr: 0x100004AD4, symSize: 0x14 }
  - { offsetInCU: 0xCEEE, offset: 0xCEEE, size: 0x8, addend: 0x0, symName: __ZNKSt3__18__bitsetILm1ELm32EE10__make_refB7v160002Em, symObjAddr: 0x1DEC, symBinAddr: 0x100004AE8, symSize: 0x40 }
  - { offsetInCU: 0xCF23, offset: 0xCF23, size: 0x8, addend: 0x0, symName: __ZNSt3__121__bit_const_referenceINS_8__bitsetILm1ELm32EEEEC1B7v160002EPKmm, symObjAddr: 0x1E2C, symBinAddr: 0x100004B28, symSize: 0x3C }
  - { offsetInCU: 0xCF69, offset: 0xCF69, size: 0x8, addend: 0x0, symName: __ZNSt3__121__bit_const_referenceINS_8__bitsetILm1ELm32EEEEC2B7v160002EPKmm, symObjAddr: 0x1E68, symBinAddr: 0x100004B64, symSize: 0x2C }
  - { offsetInCU: 0xCFAF, offset: 0xCFAF, size: 0x8, addend: 0x0, symName: __ZNKSt3__112basic_stringIcNS_11char_traitsIcEENS_9allocatorIcEEE15__get_long_sizeB7v160002Ev, symObjAddr: 0x1E94, symBinAddr: 0x100004B90, symSize: 0x28 }
  - { offsetInCU: 0xCFD5, offset: 0xCFD5, size: 0x8, addend: 0x0, symName: __ZNKSt3__112basic_stringIcNS_11char_traitsIcEENS_9allocatorIcEEE16__get_short_sizeB7v160002Ev, symObjAddr: 0x1EBC, symBinAddr: 0x100004BB8, symSize: 0x34 }
  - { offsetInCU: 0xCFFB, offset: 0xCFFB, size: 0x8, addend: 0x0, symName: __ZNSt3__112basic_stringIcNS_11char_traitsIcEENS_9allocatorIcEEE13__get_pointerB7v160002Ev, symObjAddr: 0x1EF0, symBinAddr: 0x100004BEC, symSize: 0x54 }
  - { offsetInCU: 0xD021, offset: 0xD021, size: 0x8, addend: 0x0, symName: __ZNSt3__112basic_stringIcNS_11char_traitsIcEENS_9allocatorIcEEE18__get_long_pointerB7v160002Ev, symObjAddr: 0x1F44, symBinAddr: 0x100004C40, symSize: 0x28 }
  - { offsetInCU: 0xD047, offset: 0xD047, size: 0x8, addend: 0x0, symName: __ZNSt3__112basic_stringIcNS_11char_traitsIcEENS_9allocatorIcEEE19__get_short_pointerB7v160002Ev, symObjAddr: 0x1F6C, symBinAddr: 0x100004C68, symSize: 0x28 }
  - { offsetInCU: 0xD06D, offset: 0xD06D, size: 0x8, addend: 0x0, symName: __ZNSt3__117__compressed_pairINS_12basic_stringIcNS_11char_traitsIcEENS_9allocatorIcEEE5__repES5_E5firstB7v160002Ev, symObjAddr: 0x1F94, symBinAddr: 0x100004C90, symSize: 0x24 }
  - { offsetInCU: 0xD093, offset: 0xD093, size: 0x8, addend: 0x0, symName: __ZNSt3__122__compressed_pair_elemINS_12basic_stringIcNS_11char_traitsIcEENS_9allocatorIcEEE5__repELi0ELb0EE5__getB7v160002Ev, symObjAddr: 0x1FB8, symBinAddr: 0x100004CB4, symSize: 0x14 }
  - { offsetInCU: 0xD0B9, offset: 0xD0B9, size: 0x8, addend: 0x0, symName: __ZNSt3__114pointer_traitsIPcE10pointer_toB7v160002ERc, symObjAddr: 0x1FCC, symBinAddr: 0x100004CC8, symSize: 0x14 }
  - { offsetInCU: 0xD0DC, offset: 0xD0DC, size: 0x8, addend: 0x0, symName: __ZNSt3__111char_traitsIcE6lengthEPKc, symObjAddr: 0x21D4, symBinAddr: 0x100004ED0, symSize: 0x48 }
  - { offsetInCU: 0xD11D, offset: 0xD11D, size: 0x8, addend: 0x0, symName: __ZNKSt3__113basic_ostreamIcNS_11char_traitsIcEEE6sentrycvbB7v160002Ev, symObjAddr: 0x221C, symBinAddr: 0x100004F18, symSize: 0x1C }
  - { offsetInCU: 0xD143, offset: 0xD143, size: 0x8, addend: 0x0, symName: __ZNSt3__119ostreambuf_iteratorIcNS_11char_traitsIcEEEC1B7v160002ERNS_13basic_ostreamIcS2_EE, symObjAddr: 0x2480, symBinAddr: 0x10000517C, symSize: 0x34 }
  - { offsetInCU: 0xD17B, offset: 0xD17B, size: 0x8, addend: 0x0, symName: __ZNKSt3__18ios_base5flagsB7v160002Ev, symObjAddr: 0x24B4, symBinAddr: 0x1000051B0, symSize: 0x18 }
  - { offsetInCU: 0xD1A3, offset: 0xD1A3, size: 0x8, addend: 0x0, symName: __ZNKSt3__19basic_iosIcNS_11char_traitsIcEEE4fillB7v160002Ev, symObjAddr: 0x24CC, symBinAddr: 0x1000051C8, symSize: 0x64 }
  - { offsetInCU: 0xD1CB, offset: 0xD1CB, size: 0x8, addend: 0x0, symName: __ZNKSt3__119ostreambuf_iteratorIcNS_11char_traitsIcEEE6failedB7v160002Ev, symObjAddr: 0x2530, symBinAddr: 0x10000522C, symSize: 0x24 }
  - { offsetInCU: 0xD1F1, offset: 0xD1F1, size: 0x8, addend: 0x0, symName: __ZNSt3__19basic_iosIcNS_11char_traitsIcEEE8setstateB7v160002Ej, symObjAddr: 0x2554, symBinAddr: 0x100005250, symSize: 0x2C }
  - { offsetInCU: 0xD226, offset: 0xD226, size: 0x8, addend: 0x0, symName: __ZNKSt3__18ios_base5widthB7v160002Ev, symObjAddr: 0x2580, symBinAddr: 0x10000527C, symSize: 0x18 }
  - { offsetInCU: 0xD24E, offset: 0xD24E, size: 0x8, addend: 0x0, symName: __ZNSt3__115basic_streambufIcNS_11char_traitsIcEEE5sputnB7v160002EPKcl, symObjAddr: 0x2598, symBinAddr: 0x100005294, symSize: 0x3C }
  - { offsetInCU: 0xD290, offset: 0xD290, size: 0x8, addend: 0x0, symName: __ZNSt3__18ios_base5widthB7v160002El, symObjAddr: 0x25D4, symBinAddr: 0x1000052D0, symSize: 0x2C }
  - { offsetInCU: 0xD2D6, offset: 0xD2D6, size: 0x8, addend: 0x0, symName: __ZNSt3__119ostreambuf_iteratorIcNS_11char_traitsIcEEEC2B7v160002ERNS_13basic_ostreamIcS2_EE, symObjAddr: 0x2600, symBinAddr: 0x1000052FC, symSize: 0x68 }
  - { offsetInCU: 0xD30E, offset: 0xD30E, size: 0x8, addend: 0x0, symName: __ZNKSt3__19basic_iosIcNS_11char_traitsIcEEE5rdbufB7v160002Ev, symObjAddr: 0x2668, symBinAddr: 0x100005364, symSize: 0x24 }
  - { offsetInCU: 0xD336, offset: 0xD336, size: 0x8, addend: 0x0, symName: __ZNKSt3__18ios_base5rdbufB7v160002Ev, symObjAddr: 0x268C, symBinAddr: 0x100005388, symSize: 0x18 }
  - { offsetInCU: 0xD35C, offset: 0xD35C, size: 0x8, addend: 0x0, symName: __ZNSt3__111char_traitsIcE11eq_int_typeEii, symObjAddr: 0x26A4, symBinAddr: 0x1000053A0, symSize: 0x28 }
  - { offsetInCU: 0xD38D, offset: 0xD38D, size: 0x8, addend: 0x0, symName: __ZNSt3__111char_traitsIcE3eofEv, symObjAddr: 0x26CC, symBinAddr: 0x1000053C8, symSize: 0x8 }
  - { offsetInCU: 0xD3A1, offset: 0xD3A1, size: 0x8, addend: 0x0, symName: __ZNKSt3__19basic_iosIcNS_11char_traitsIcEEE5widenB7v160002Ec, symObjAddr: 0x26D4, symBinAddr: 0x1000053D0, symSize: 0x8C }
  - { offsetInCU: 0xD40F, offset: 0xD40F, size: 0x8, addend: 0x0, symName: __ZNKSt3__15ctypeIcE5widenB7v160002Ec, symObjAddr: 0x278C, symBinAddr: 0x100005488, symSize: 0x38 }
  - { offsetInCU: 0xD444, offset: 0xD444, size: 0x8, addend: 0x0, symName: __ZNSt3__18ios_base8setstateB7v160002Ej, symObjAddr: 0x27C4, symBinAddr: 0x1000054C0, symSize: 0x34 }
  - { offsetInCU: 0xD47B, offset: 0xD47B, size: 0x8, addend: 0x0, symName: __ZNSt3__16vectorIiNS_9allocatorIiEEEC2B7v160002Ev, symObjAddr: 0x281C, symBinAddr: 0x100005518, symSize: 0x4C }
  - { offsetInCU: 0xD4AB, offset: 0xD4AB, size: 0x8, addend: 0x0, symName: __ZNSt3__117__compressed_pairIPiNS_9allocatorIiEEEC1B7v160002IDnNS_18__default_init_tagEEEOT_OT0_, symObjAddr: 0x2868, symBinAddr: 0x100005564, symSize: 0x3C }
  - { offsetInCU: 0xD503, offset: 0xD503, size: 0x8, addend: 0x0, symName: __ZNSt3__117__compressed_pairIPiNS_9allocatorIiEEEC2B7v160002IDnNS_18__default_init_tagEEEOT_OT0_, symObjAddr: 0x28B4, symBinAddr: 0x1000055B0, symSize: 0x40 }
  - { offsetInCU: 0xD55B, offset: 0xD55B, size: 0x8, addend: 0x0, symName: __ZNSt3__122__compressed_pair_elemIPiLi0ELb0EEC2B7v160002IDnvEEOT_, symObjAddr: 0x28F4, symBinAddr: 0x1000055F0, symSize: 0x1C }
  - { offsetInCU: 0xD59D, offset: 0xD59D, size: 0x8, addend: 0x0, symName: __ZNSt3__122__compressed_pair_elemINS_9allocatorIiEELi1ELb1EEC2B7v160002ENS_18__default_init_tagE, symObjAddr: 0x2910, symBinAddr: 0x10000560C, symSize: 0x2C }
  - { offsetInCU: 0xD5D2, offset: 0xD5D2, size: 0x8, addend: 0x0, symName: __ZNSt3__19allocatorIiEC2B7v160002Ev, symObjAddr: 0x293C, symBinAddr: 0x100005638, symSize: 0x2C }
  - { offsetInCU: 0xD5FC, offset: 0xD5FC, size: 0x8, addend: 0x0, symName: __ZNSt3__116__non_trivial_ifILb1ENS_9allocatorIiEEEC2B7v160002Ev, symObjAddr: 0x2968, symBinAddr: 0x100005664, symSize: 0x14 }
  - { offsetInCU: 0xD626, offset: 0xD626, size: 0x8, addend: 0x0, symName: __ZNSt3__16vectorIiNS_9allocatorIiEEED2B7v160002Ev, symObjAddr: 0x297C, symBinAddr: 0x100005678, symSize: 0x3C }
  - { offsetInCU: 0xD650, offset: 0xD650, size: 0x8, addend: 0x0, symName: __ZNSt3__16vectorIiNS_9allocatorIiEEE16__destroy_vectorC1ERS3_, symObjAddr: 0x29B8, symBinAddr: 0x1000056B4, symSize: 0x34 }
  - { offsetInCU: 0xD689, offset: 0xD689, size: 0x8, addend: 0x0, symName: __ZNSt3__16vectorIiNS_9allocatorIiEEE16__destroy_vectorclB7v160002Ev, symObjAddr: 0x29EC, symBinAddr: 0x1000056E8, symSize: 0x9C }
  - { offsetInCU: 0xD6AF, offset: 0xD6AF, size: 0x8, addend: 0x0, symName: __ZNSt3__16vectorIiNS_9allocatorIiEEE16__destroy_vectorC2ERS3_, symObjAddr: 0x2A88, symBinAddr: 0x100005784, symSize: 0x20 }
  - { offsetInCU: 0xD6E8, offset: 0xD6E8, size: 0x8, addend: 0x0, symName: __ZNKSt3__16vectorIiNS_9allocatorIiEEE17__annotate_deleteB7v160002Ev, symObjAddr: 0x2AA8, symBinAddr: 0x1000057A4, symSize: 0xB8 }
  - { offsetInCU: 0xD70E, offset: 0xD70E, size: 0x8, addend: 0x0, symName: __ZNSt3__16vectorIiNS_9allocatorIiEEE7__clearB7v160002Ev, symObjAddr: 0x2B70, symBinAddr: 0x10000586C, symSize: 0x28 }
  - { offsetInCU: 0xD734, offset: 0xD734, size: 0x8, addend: 0x0, symName: __ZNSt3__116allocator_traitsINS_9allocatorIiEEE10deallocateB7v160002ERS2_Pim, symObjAddr: 0x2B98, symBinAddr: 0x100005894, symSize: 0x34 }
  - { offsetInCU: 0xD776, offset: 0xD776, size: 0x8, addend: 0x0, symName: __ZNSt3__16vectorIiNS_9allocatorIiEEE7__allocB7v160002Ev, symObjAddr: 0x2BCC, symBinAddr: 0x1000058C8, symSize: 0x28 }
  - { offsetInCU: 0xD79C, offset: 0xD79C, size: 0x8, addend: 0x0, symName: __ZNKSt3__16vectorIiNS_9allocatorIiEEE8capacityB7v160002Ev, symObjAddr: 0x2BF4, symBinAddr: 0x1000058F0, symSize: 0x40 }
  - { offsetInCU: 0xD7C2, offset: 0xD7C2, size: 0x8, addend: 0x0, symName: __ZNKSt3__16vectorIiNS_9allocatorIiEEE31__annotate_contiguous_containerB7v160002EPKvS5_S5_S5_, symObjAddr: 0x2C34, symBinAddr: 0x100005930, symSize: 0x20 }
  - { offsetInCU: 0xD814, offset: 0xD814, size: 0x8, addend: 0x0, symName: __ZNKSt3__16vectorIiNS_9allocatorIiEEE4dataB7v160002Ev, symObjAddr: 0x2C54, symBinAddr: 0x100005950, symSize: 0x28 }
  - { offsetInCU: 0xD83A, offset: 0xD83A, size: 0x8, addend: 0x0, symName: __ZNKSt3__16vectorIiNS_9allocatorIiEEE4sizeB7v160002Ev, symObjAddr: 0x2C7C, symBinAddr: 0x100005978, symSize: 0x28 }
  - { offsetInCU: 0xD860, offset: 0xD860, size: 0x8, addend: 0x0, symName: __ZNSt3__16vectorIiNS_9allocatorIiEEE22__base_destruct_at_endB7v160002EPi, symObjAddr: 0x2CB8, symBinAddr: 0x1000059B4, symSize: 0xA0 }
  - { offsetInCU: 0xD8A4, offset: 0xD8A4, size: 0x8, addend: 0x0, symName: __ZNSt3__116allocator_traitsINS_9allocatorIiEEE7destroyB7v160002IivEEvRS2_PT_, symObjAddr: 0x2D58, symBinAddr: 0x100005A54, symSize: 0x2C }
  - { offsetInCU: 0xD8E1, offset: 0xD8E1, size: 0x8, addend: 0x0, symName: __ZNSt3__19allocatorIiE7destroyB7v160002EPi, symObjAddr: 0x2D84, symBinAddr: 0x100005A80, symSize: 0x14 }
  - { offsetInCU: 0xD915, offset: 0xD915, size: 0x8, addend: 0x0, symName: __ZNSt3__19allocatorIiE10deallocateB7v160002EPim, symObjAddr: 0x2D98, symBinAddr: 0x100005A94, symSize: 0x70 }
  - { offsetInCU: 0xD957, offset: 0xD957, size: 0x8, addend: 0x0, symName: __ZNSt3__117__compressed_pairIPiNS_9allocatorIiEEE6secondB7v160002Ev, symObjAddr: 0x2E84, symBinAddr: 0x100005B80, symSize: 0x24 }
  - { offsetInCU: 0xD97D, offset: 0xD97D, size: 0x8, addend: 0x0, symName: __ZNSt3__122__compressed_pair_elemINS_9allocatorIiEELi1ELb1EE5__getB7v160002Ev, symObjAddr: 0x2EA8, symBinAddr: 0x100005BA4, symSize: 0x14 }
  - { offsetInCU: 0xD9A3, offset: 0xD9A3, size: 0x8, addend: 0x0, symName: __ZNKSt3__16vectorIiNS_9allocatorIiEEE9__end_capB7v160002Ev, symObjAddr: 0x2EBC, symBinAddr: 0x100005BB8, symSize: 0x28 }
  - { offsetInCU: 0xD9C9, offset: 0xD9C9, size: 0x8, addend: 0x0, symName: __ZNKSt3__117__compressed_pairIPiNS_9allocatorIiEEE5firstB7v160002Ev, symObjAddr: 0x2EE4, symBinAddr: 0x100005BE0, symSize: 0x24 }
  - { offsetInCU: 0xD9EF, offset: 0xD9EF, size: 0x8, addend: 0x0, symName: __ZNKSt3__122__compressed_pair_elemIPiLi0ELb0EE5__getB7v160002Ev, symObjAddr: 0x2F08, symBinAddr: 0x100005C04, symSize: 0x14 }
  - { offsetInCU: 0xDA15, offset: 0xDA15, size: 0x8, addend: 0x0, symName: __ZNKSt3__16vectorIiNS_9allocatorIiEEE8max_sizeEv, symObjAddr: 0x2F1C, symBinAddr: 0x100005C18, symSize: 0x74 }
  - { offsetInCU: 0xDA3D, offset: 0xDA3D, size: 0x8, addend: 0x0, symName: __ZNKSt3__16vectorIiNS_9allocatorIiEEE20__throw_length_errorB7v160002Ev, symObjAddr: 0x2F90, symBinAddr: 0x100005C8C, symSize: 0x1C }
  - { offsetInCU: 0xDA63, offset: 0xDA63, size: 0x8, addend: 0x0, symName: __ZNSt3__114__split_bufferIiRNS_9allocatorIiEEEC1EmmS3_, symObjAddr: 0x2FAC, symBinAddr: 0x100005CA8, symSize: 0x44 }
  - { offsetInCU: 0xDAB9, offset: 0xDAB9, size: 0x8, addend: 0x0, symName: __ZNSt3__114__split_bufferIiRNS_9allocatorIiEEED1Ev, symObjAddr: 0x3108, symBinAddr: 0x100005E04, symSize: 0x2C }
  - { offsetInCU: 0xDAEF, offset: 0xDAEF, size: 0x8, addend: 0x0, symName: __ZNSt3__116allocator_traitsINS_9allocatorIiEEE8max_sizeB7v160002IS2_vEEmRKS2_, symObjAddr: 0x3134, symBinAddr: 0x100005E30, symSize: 0x24 }
  - { offsetInCU: 0xDB1D, offset: 0xDB1D, size: 0x8, addend: 0x0, symName: __ZNKSt3__16vectorIiNS_9allocatorIiEEE7__allocB7v160002Ev, symObjAddr: 0x3158, symBinAddr: 0x100005E54, symSize: 0x28 }
  - { offsetInCU: 0xDB43, offset: 0xDB43, size: 0x8, addend: 0x0, symName: __ZNSt3__114numeric_limitsIlE3maxB7v160002Ev, symObjAddr: 0x3180, symBinAddr: 0x100005E7C, symSize: 0x14 }
  - { offsetInCU: 0xDB57, offset: 0xDB57, size: 0x8, addend: 0x0, symName: __ZNKSt3__19allocatorIiE8max_sizeB7v160002Ev, symObjAddr: 0x3194, symBinAddr: 0x100005E90, symSize: 0x14 }
  - { offsetInCU: 0xDB7D, offset: 0xDB7D, size: 0x8, addend: 0x0, symName: __ZNKSt3__117__compressed_pairIPiNS_9allocatorIiEEE6secondB7v160002Ev, symObjAddr: 0x31A8, symBinAddr: 0x100005EA4, symSize: 0x24 }
  - { offsetInCU: 0xDBA3, offset: 0xDBA3, size: 0x8, addend: 0x0, symName: __ZNKSt3__122__compressed_pair_elemINS_9allocatorIiEELi1ELb1EE5__getB7v160002Ev, symObjAddr: 0x31CC, symBinAddr: 0x100005EC8, symSize: 0x14 }
  - { offsetInCU: 0xDBC9, offset: 0xDBC9, size: 0x8, addend: 0x0, symName: __ZNSt3__123__libcpp_numeric_limitsIlLb1EE3maxB7v160002Ev, symObjAddr: 0x31E0, symBinAddr: 0x100005EDC, symSize: 0x8 }
  - { offsetInCU: 0xDBDD, offset: 0xDBDD, size: 0x8, addend: 0x0, symName: __ZNSt12length_errorC1B7v160002EPKc, symObjAddr: 0x324C, symBinAddr: 0x100005F48, symSize: 0x34 }
  - { offsetInCU: 0xDC15, offset: 0xDC15, size: 0x8, addend: 0x0, symName: __ZNSt12length_errorC2B7v160002EPKc, symObjAddr: 0x3280, symBinAddr: 0x100005F7C, symSize: 0x4C }
  - { offsetInCU: 0xDC4D, offset: 0xDC4D, size: 0x8, addend: 0x0, symName: __ZNSt3__114__split_bufferIiRNS_9allocatorIiEEEC2EmmS3_, symObjAddr: 0x32CC, symBinAddr: 0x100005FC8, symSize: 0xD4 }
  - { offsetInCU: 0xDCC0, offset: 0xDCC0, size: 0x8, addend: 0x0, symName: __ZNSt3__117__compressed_pairIPiRNS_9allocatorIiEEEC1B7v160002IDnS4_EEOT_OT0_, symObjAddr: 0x33A0, symBinAddr: 0x10000609C, symSize: 0x3C }
  - { offsetInCU: 0xDD18, offset: 0xDD18, size: 0x8, addend: 0x0, symName: __ZNSt3__114__split_bufferIiRNS_9allocatorIiEEE7__allocB7v160002Ev, symObjAddr: 0x341C, symBinAddr: 0x100006118, symSize: 0x28 }
  - { offsetInCU: 0xDD3E, offset: 0xDD3E, size: 0x8, addend: 0x0, symName: __ZNSt3__114__split_bufferIiRNS_9allocatorIiEEE9__end_capB7v160002Ev, symObjAddr: 0x3444, symBinAddr: 0x100006140, symSize: 0x28 }
  - { offsetInCU: 0xDD64, offset: 0xDD64, size: 0x8, addend: 0x0, symName: __ZNSt3__117__compressed_pairIPiRNS_9allocatorIiEEEC2B7v160002IDnS4_EEOT_OT0_, symObjAddr: 0x346C, symBinAddr: 0x100006168, symSize: 0x48 }
  - { offsetInCU: 0xDDBC, offset: 0xDDBC, size: 0x8, addend: 0x0, symName: __ZNSt3__122__compressed_pair_elemIRNS_9allocatorIiEELi1ELb0EEC2B7v160002IS3_vEEOT_, symObjAddr: 0x34B4, symBinAddr: 0x1000061B0, symSize: 0x20 }
  - { offsetInCU: 0xDDFE, offset: 0xDDFE, size: 0x8, addend: 0x0, symName: __ZNSt3__19allocatorIiE8allocateB7v160002Em, symObjAddr: 0x34D4, symBinAddr: 0x1000061D0, symSize: 0x84 }
  - { offsetInCU: 0xDE32, offset: 0xDE32, size: 0x8, addend: 0x0, symName: __ZNSt3__117__compressed_pairIPiRNS_9allocatorIiEEE6secondB7v160002Ev, symObjAddr: 0x35D8, symBinAddr: 0x1000062D4, symSize: 0x28 }
  - { offsetInCU: 0xDE58, offset: 0xDE58, size: 0x8, addend: 0x0, symName: __ZNSt3__122__compressed_pair_elemIRNS_9allocatorIiEELi1ELb0EE5__getB7v160002Ev, symObjAddr: 0x3600, symBinAddr: 0x1000062FC, symSize: 0x18 }
  - { offsetInCU: 0xDE7E, offset: 0xDE7E, size: 0x8, addend: 0x0, symName: __ZNSt3__117__compressed_pairIPiRNS_9allocatorIiEEE5firstB7v160002Ev, symObjAddr: 0x3618, symBinAddr: 0x100006314, symSize: 0x24 }
  - { offsetInCU: 0xDEA4, offset: 0xDEA4, size: 0x8, addend: 0x0, symName: __ZNSt3__122__compressed_pair_elemIPiLi0ELb0EE5__getB7v160002Ev, symObjAddr: 0x363C, symBinAddr: 0x100006338, symSize: 0x14 }
  - { offsetInCU: 0xDECA, offset: 0xDECA, size: 0x8, addend: 0x0, symName: __ZNSt3__116reverse_iteratorIPiEC1B7v160002ES1_, symObjAddr: 0x3738, symBinAddr: 0x100006434, symSize: 0x34 }
  - { offsetInCU: 0xDF02, offset: 0xDF02, size: 0x8, addend: 0x0, symName: __ZNKSt3__116reverse_iteratorIPiE4baseB7v160002Ev, symObjAddr: 0x376C, symBinAddr: 0x100006468, symSize: 0x18 }
  - { offsetInCU: 0xDF28, offset: 0xDF28, size: 0x8, addend: 0x0, symName: __ZNSt3__16vectorIiNS_9allocatorIiEEE9__end_capB7v160002Ev, symObjAddr: 0x37C0, symBinAddr: 0x1000064BC, symSize: 0x28 }
  - { offsetInCU: 0xDF4E, offset: 0xDF4E, size: 0x8, addend: 0x0, symName: __ZNKSt3__16vectorIiNS_9allocatorIiEEE14__annotate_newB7v160002Em, symObjAddr: 0x37E8, symBinAddr: 0x1000064E4, symSize: 0xAC }
  - { offsetInCU: 0xDF83, offset: 0xDF83, size: 0x8, addend: 0x0, symName: __ZNKSt3__116reverse_iteratorIPiEdeB7v160002Ev, symObjAddr: 0x393C, symBinAddr: 0x100006638, symSize: 0x28 }
  - { offsetInCU: 0xDFB7, offset: 0xDFB7, size: 0x8, addend: 0x0, symName: __ZNSt3__116reverse_iteratorIPiEppB7v160002Ev, symObjAddr: 0x3964, symBinAddr: 0x100006660, symSize: 0x20 }
  - { offsetInCU: 0xDFE2, offset: 0xDFE2, size: 0x8, addend: 0x0, symName: __ZNSt3__119__to_address_helperINS_16reverse_iteratorIPiEEvE6__callB7v160002ERKS3_, symObjAddr: 0x39FC, symBinAddr: 0x1000066F8, symSize: 0x4C }
  - { offsetInCU: 0xE005, offset: 0xE005, size: 0x8, addend: 0x0, symName: __ZNKSt3__116reverse_iteratorIPiEptB7v160002Ev, symObjAddr: 0x3A48, symBinAddr: 0x100006744, symSize: 0x24 }
  - { offsetInCU: 0xE04F, offset: 0xE04F, size: 0x8, addend: 0x0, symName: __ZNKSt3__111__move_loopINS_17_ClassicAlgPolicyEEclB7v160002INS_16reverse_iteratorIPiEES6_S6_EENS_4pairIT_T1_EES8_T0_S9_, symObjAddr: 0x3CFC, symBinAddr: 0x1000069F8, symSize: 0xA0 }
  - { offsetInCU: 0xE0C0, offset: 0xE0C0, size: 0x8, addend: 0x0, symName: __ZNSt3__18_IterOpsINS_17_ClassicAlgPolicyEE11__iter_moveB7v160002IRNS_16reverse_iteratorIPiEEEENS_9enable_ifIXsr12is_referenceIDTdeclsr3stdE7declvalIRT_EEEEE5valueEDTclsr3stdE4movedeclsr3stdE7declvalISA_EEEEE4typeEOS9_, symObjAddr: 0x3EFC, symBinAddr: 0x100006BF8, symSize: 0x28 }
  - { offsetInCU: 0xE0EC, offset: 0xE0EC, size: 0x8, addend: 0x0, symName: __ZNSt3__18_IterOpsINS_17_ClassicAlgPolicyEE25__validate_iter_referenceB7v160002IRNS_16reverse_iteratorIPiEEEEvv, symObjAddr: 0x3F24, symBinAddr: 0x100006C20, symSize: 0x4 }
  - { offsetInCU: 0xE10A, offset: 0xE10A, size: 0x8, addend: 0x0, symName: __ZNSt3__118__unwrap_iter_implINS_16reverse_iteratorIPiEELb0EE8__unwrapB7v160002ES3_, symObjAddr: 0x3F28, symBinAddr: 0x100006C24, symSize: 0x24 }
  - { offsetInCU: 0xE12D, offset: 0xE12D, size: 0x8, addend: 0x0, symName: __ZNSt3__14pairINS_16reverse_iteratorIPiEES3_EC1B7v160002ERKS3_S6_, symObjAddr: 0x3F4C, symBinAddr: 0x100006C48, symSize: 0x3C }
  - { offsetInCU: 0xE173, offset: 0xE173, size: 0x8, addend: 0x0, symName: __ZNSt3__14pairINS_16reverse_iteratorIPiEES3_EC2B7v160002ERKS3_S6_, symObjAddr: 0x3F88, symBinAddr: 0x100006C84, symSize: 0x34 }
  - { offsetInCU: 0xE1B9, offset: 0xE1B9, size: 0x8, addend: 0x0, symName: __ZNSt3__118__unwrap_iter_implINS_16reverse_iteratorIPiEELb0EE8__rewrapB7v160002ES3_S3_, symObjAddr: 0x3FBC, symBinAddr: 0x100006CB8, symSize: 0x2C }
  - { offsetInCU: 0xE1E7, offset: 0xE1E7, size: 0x8, addend: 0x0, symName: __ZNSt3__116reverse_iteratorIPiEC2B7v160002ES1_, symObjAddr: 0x3FE8, symBinAddr: 0x100006CE4, symSize: 0x28 }
  - { offsetInCU: 0xE21F, offset: 0xE21F, size: 0x8, addend: 0x0, symName: __ZNSt3__117__compressed_pairIPiNS_9allocatorIiEEE5firstB7v160002Ev, symObjAddr: 0x4010, symBinAddr: 0x100006D0C, symSize: 0x24 }
  - { offsetInCU: 0xE245, offset: 0xE245, size: 0x8, addend: 0x0, symName: __ZNSt3__114__split_bufferIiRNS_9allocatorIiEEED2Ev, symObjAddr: 0x4034, symBinAddr: 0x100006D30, symSize: 0x80 }
  - { offsetInCU: 0xE271, offset: 0xE271, size: 0x8, addend: 0x0, symName: __ZNSt3__114__split_bufferIiRNS_9allocatorIiEEE5clearB7v160002Ev, symObjAddr: 0x40B4, symBinAddr: 0x100006DB0, symSize: 0x28 }
  - { offsetInCU: 0xE297, offset: 0xE297, size: 0x8, addend: 0x0, symName: __ZNKSt3__114__split_bufferIiRNS_9allocatorIiEEE8capacityB7v160002Ev, symObjAddr: 0x40DC, symBinAddr: 0x100006DD8, symSize: 0x40 }
  - { offsetInCU: 0xE2BD, offset: 0xE2BD, size: 0x8, addend: 0x0, symName: __ZNSt3__114__split_bufferIiRNS_9allocatorIiEEE17__destruct_at_endB7v160002EPi, symObjAddr: 0x411C, symBinAddr: 0x100006E18, symSize: 0x2C }
  - { offsetInCU: 0xE2F1, offset: 0xE2F1, size: 0x8, addend: 0x0, symName: __ZNSt3__114__split_bufferIiRNS_9allocatorIiEEE17__destruct_at_endB7v160002EPiNS_17integral_constantIbLb0EEE, symObjAddr: 0x4148, symBinAddr: 0x100006E44, symSize: 0x94 }
  - { offsetInCU: 0xE332, offset: 0xE332, size: 0x8, addend: 0x0, symName: __ZNKSt3__114__split_bufferIiRNS_9allocatorIiEEE9__end_capB7v160002Ev, symObjAddr: 0x41DC, symBinAddr: 0x100006ED8, symSize: 0x28 }
  - { offsetInCU: 0xE358, offset: 0xE358, size: 0x8, addend: 0x0, symName: __ZNKSt3__117__compressed_pairIPiRNS_9allocatorIiEEE5firstB7v160002Ev, symObjAddr: 0x4204, symBinAddr: 0x100006F00, symSize: 0x24 }
  - { offsetInCU: 0xE37E, offset: 0xE37E, size: 0x8, addend: 0x0, symName: __ZNSt3__16vectorIiNS_9allocatorIiEEE22__construct_one_at_endB7v160002IJiEEEvDpOT_, symObjAddr: 0x4228, symBinAddr: 0x100006F24, symSize: 0x98 }
  - { offsetInCU: 0xE3CD, offset: 0xE3CD, size: 0x8, addend: 0x0, symName: __ZNSt3__16vectorIiNS_9allocatorIiEEE21__push_back_slow_pathIiEEvOT_, symObjAddr: 0x42C0, symBinAddr: 0x100006FBC, symSize: 0xE0 }
  - { offsetInCU: 0xE444, offset: 0xE444, size: 0x8, addend: 0x0, symName: __ZNSt3__16vectorIiNS_9allocatorIiEEE21_ConstructTransactionC1B7v160002ERS3_m, symObjAddr: 0x43A0, symBinAddr: 0x10000709C, symSize: 0x3C }
  - { offsetInCU: 0xE48C, offset: 0xE48C, size: 0x8, addend: 0x0, symName: __ZNSt3__116allocator_traitsINS_9allocatorIiEEE9constructB7v160002IiJiEvEEvRS2_PT_DpOT0_, symObjAddr: 0x43DC, symBinAddr: 0x1000070D8, symSize: 0x34 }
  - { offsetInCU: 0xE4E3, offset: 0xE4E3, size: 0x8, addend: 0x0, symName: __ZNSt3__16vectorIiNS_9allocatorIiEEE21_ConstructTransactionD1B7v160002Ev, symObjAddr: 0x4410, symBinAddr: 0x10000710C, symSize: 0x2C }
  - { offsetInCU: 0xE50D, offset: 0xE50D, size: 0x8, addend: 0x0, symName: __ZNSt3__16vectorIiNS_9allocatorIiEEE21_ConstructTransactionC2B7v160002ERS3_m, symObjAddr: 0x443C, symBinAddr: 0x100007138, symSize: 0x44 }
  - { offsetInCU: 0xE555, offset: 0xE555, size: 0x8, addend: 0x0, symName: __ZNSt3__19allocatorIiE9constructB7v160002IiJiEEEvPT_DpOT0_, symObjAddr: 0x4480, symBinAddr: 0x10000717C, symSize: 0x28 }
  - { offsetInCU: 0xE5AB, offset: 0xE5AB, size: 0x8, addend: 0x0, symName: __ZNSt3__16vectorIiNS_9allocatorIiEEE21_ConstructTransactionD2B7v160002Ev, symObjAddr: 0x44A8, symBinAddr: 0x1000071A4, symSize: 0x20 }
  - { offsetInCU: 0xE5D5, offset: 0xE5D5, size: 0x8, addend: 0x0, symName: __ZNKSt3__16vectorIiNS_9allocatorIiEEE11__recommendB7v160002Em, symObjAddr: 0x44C8, symBinAddr: 0x1000071C4, symSize: 0xB4 }
  - { offsetInCU: 0xE62A, offset: 0xE62A, size: 0x8, addend: 0x0, symName: __ZNSt3__16vectorIiNS_9allocatorIiEEE11__make_iterB7v160002EPi, symObjAddr: 0x45FC, symBinAddr: 0x1000072F8, symSize: 0x34 }
  - { offsetInCU: 0xE65F, offset: 0xE65F, size: 0x8, addend: 0x0, symName: __ZNSt3__111__wrap_iterIPiEC1B7v160002EPKvS1_, symObjAddr: 0x4630, symBinAddr: 0x10000732C, symSize: 0x3C }
  - { offsetInCU: 0xE6A5, offset: 0xE6A5, size: 0x8, addend: 0x0, symName: __ZNSt3__111__wrap_iterIPiEC2B7v160002EPKvS1_, symObjAddr: 0x466C, symBinAddr: 0x100007368, symSize: 0x24 }
  - { offsetInCU: 0xE6EB, offset: 0xE6EB, size: 0x8, addend: 0x0, symName: __ZNKSt3__111__wrap_iterIPiE4baseB7v160002Ev, symObjAddr: 0x46D8, symBinAddr: 0x1000073D4, symSize: 0x18 }
  - { offsetInCU: 0xE72F, offset: 0xE72F, size: 0x8, addend: 0x0, symName: __ZNKSt3__16chrono10time_pointINS0_12steady_clockENS0_8durationIxNS_5ratioILl1ELl1000000000EEEEEE16time_since_epochB7v160002Ev, symObjAddr: 0x4760, symBinAddr: 0x10000745C, symSize: 0x20 }
  - { offsetInCU: 0xE755, offset: 0xE755, size: 0x8, addend: 0x0, symName: __ZNKSt3__16chrono8durationIxNS_5ratioILl1ELl1000000000EEEE5countB7v160002Ev, symObjAddr: 0x4780, symBinAddr: 0x10000747C, symSize: 0x18 }
  - { offsetInCU: 0xE785, offset: 0xE785, size: 0x8, addend: 0x0, symName: __ZNSt3__16chrono8durationIxNS_5ratioILl1ELl1000000000EEEEC1B7v160002IxEERKT_PNS_9enable_ifIXaasr14is_convertibleIS8_xEE5valueooL_ZNS_17integral_constantIbLb0EE5valueEEntsr23treat_as_floating_pointIS6_EE5valueEvE4typeE, symObjAddr: 0x4798, symBinAddr: 0x100007494, symSize: 0x3C }
  - { offsetInCU: 0xE7D1, offset: 0xE7D1, size: 0x8, addend: 0x0, symName: __ZNSt3__16chrono8durationIxNS_5ratioILl1ELl1000000000EEEEC2B7v160002IxEERKT_PNS_9enable_ifIXaasr14is_convertibleIS8_xEE5valueooL_ZNS_17integral_constantIbLb0EE5valueEEntsr23treat_as_floating_pointIS6_EE5valueEvE4typeE, symObjAddr: 0x47D4, symBinAddr: 0x1000074D0, symSize: 0x28 }
  - { offsetInCU: 0xE81D, offset: 0xE81D, size: 0x8, addend: 0x0, symName: __ZNSt3__16chrono8durationIdNS_5ratioILl1ELl1EEEEC2B7v160002IxNS2_ILl1ELl1000000000EEEEERKNS1_IT_T0_EEPNS_9enable_ifIXaasr13__no_overflowIS8_S3_EE5valueooL_ZNS_17integral_constantIbLb1EE5valueEEaaeqsr13__no_overflowIS8_S3_E4typeE3denLi1Entsr23treat_as_floating_pointIS7_EE5valueEvE4typeE, symObjAddr: 0x47FC, symBinAddr: 0x1000074F8, symSize: 0x48 }
  - { offsetInCU: 0xE873, offset: 0xE873, size: 0x8, addend: 0x0, symName: __ZNKSt3__16chrono8durationIdNS_5ratioILl1ELl1EEEE5countB7v160002Ev, symObjAddr: 0x4874, symBinAddr: 0x100007570, symSize: 0x18 }
  - { offsetInCU: 0xE8A3, offset: 0xE8A3, size: 0x8, addend: 0x0, symName: __ZNSt3__16chrono8durationIdNS_5ratioILl1ELl1EEEEC1B7v160002IdEERKT_PNS_9enable_ifIXaasr14is_convertibleIS8_dEE5valueooL_ZNS_17integral_constantIbLb1EE5valueEEntsr23treat_as_floating_pointIS6_EE5valueEvE4typeE, symObjAddr: 0x48DC, symBinAddr: 0x1000075D8, symSize: 0x3C }
  - { offsetInCU: 0xE8EF, offset: 0xE8EF, size: 0x8, addend: 0x0, symName: __ZNSt3__16chrono8durationIdNS_5ratioILl1ELl1EEEEC2B7v160002IdEERKT_PNS_9enable_ifIXaasr14is_convertibleIS8_dEE5valueooL_ZNS_17integral_constantIbLb1EE5valueEEntsr23treat_as_floating_pointIS6_EE5valueEvE4typeE, symObjAddr: 0x4918, symBinAddr: 0x100007614, symSize: 0x28 }
  - { offsetInCU: 0xE93B, offset: 0xE93B, size: 0x8, addend: 0x0, symName: __ZNSt3__16chrono8durationIxNS_5ratioILl1ELl1000EEEEC1B7v160002IxEERKT_PNS_9enable_ifIXaasr14is_convertibleIS8_xEE5valueooL_ZNS_17integral_constantIbLb0EE5valueEEntsr23treat_as_floating_pointIS6_EE5valueEvE4typeE, symObjAddr: 0x4990, symBinAddr: 0x10000768C, symSize: 0x3C }
  - { offsetInCU: 0xE987, offset: 0xE987, size: 0x8, addend: 0x0, symName: __ZNSt3__16chrono8durationIxNS_5ratioILl1ELl1000EEEEC2B7v160002IxEERKT_PNS_9enable_ifIXaasr14is_convertibleIS8_xEE5valueooL_ZNS_17integral_constantIbLb0EE5valueEEntsr23treat_as_floating_pointIS6_EE5valueEvE4typeE, symObjAddr: 0x49CC, symBinAddr: 0x1000076C8, symSize: 0x28 }
...
